target datalayout = "e-m:e-p270:32:32-p271:32:32-p272:64:64-i64:64-i128:128-f80:128-n8:16:32:64-S128"
target triple = "x86_64-pc-linux-gnu"

%struct.SDL_RenderViewState = type { i32, i32, %struct.SDL_Rect, %struct.SDL_Rect, %struct.SDL_Rect, %struct.SDL_Rect, i8, %struct.SDL_FPoint, i32, i32, i32, %struct.SDL_FRect, %struct.SDL_FRect, %struct.SDL_FPoint, %struct.SDL_FPoint, %struct.SDL_FPoint }
%struct.SDL_FRect = type { float, float, float, float }
%struct.SDL_FPoint = type { float, float }
%struct.SDL_FColor = type { float, float, float, float }
%struct.SDL_Rect = type { i32, i32, i32, i32 }
%struct.SDL_Texture = type { i32, i32, i32, i32, i32, float, float, i32, i32, i32, %struct.SDL_FColor, %struct.SDL_RenderViewState, ptr, ptr, ptr, ptr, i32, %struct.SDL_Rect, ptr, i32, i32, ptr, ptr, ptr }

@.str.2 = private unnamed_addr constant [26 x i8] c"Parameter '%s' is invalid\00", align 1
@.str.52 = private unnamed_addr constant [8 x i8] c"texture\00", align 1

; Function Attrs: nounwind uwtable
define hidden zeroext i1 @SDL_GetTextureColorModFloat_REAL(ptr noundef %0, ptr noundef %1, ptr noundef %2, ptr noundef %3) #0 {
  %5 = alloca i1, align 1
  %6 = alloca ptr, align 8
  %7 = alloca ptr, align 8
  %8 = alloca ptr, align 8
  %9 = alloca ptr, align 8
  %10 = alloca %struct.SDL_FColor, align 4
  %11 = alloca i32, align 4
  store ptr %0, ptr %6, align 8
  store ptr %1, ptr %7, align 8
  store ptr %2, ptr %8, align 8
  store ptr %3, ptr %9, align 8
  call void @llvm.lifetime.start.p0(i64 16, ptr %10) #10
  %12 = load ptr, ptr %7, align 8
  %13 = icmp ne ptr %12, null
  br i1 %13, label %14, label %16

14:                                               ; preds = %4
  %15 = load ptr, ptr %7, align 8
  store float 1.000000e+00, ptr %15, align 4
  br label %16

16:                                               ; preds = %14, %4
  %17 = load ptr, ptr %8, align 8
  %18 = icmp ne ptr %17, null
  br i1 %18, label %19, label %21

19:                                               ; preds = %16
  %20 = load ptr, ptr %8, align 8
  store float 1.000000e+00, ptr %20, align 4
  br label %21

21:                                               ; preds = %19, %16
  %22 = load ptr, ptr %9, align 8
  %23 = icmp ne ptr %22, null
  br i1 %23, label %24, label %26

24:                                               ; preds = %21
  %25 = load ptr, ptr %9, align 8
  store float 1.000000e+00, ptr %25, align 4
  br label %26

26:                                               ; preds = %24, %21
  %27 = load ptr, ptr %6, align 8
  %28 = call zeroext i1 @SDL_ObjectValid(ptr noundef %27, i32 noundef 3)
  br i1 %28, label %31, label %29

29:                                               ; preds = %26
  %30 = call zeroext i1 (ptr, ...) @SDL_SetError_REAL(ptr noundef @.str.2, ptr noundef @.str.52)
  store i1 false, ptr %5, align 1
  store i32 1, ptr %11, align 4
  br label %55

31:                                               ; preds = %26
  %32 = load ptr, ptr %6, align 8
  %33 = getelementptr inbounds nuw %struct.SDL_Texture, ptr %32, i32 0, i32 10
  call void @llvm.memcpy.p0.p0.i64(ptr align 4 %10, ptr align 8 %33, i64 16, i1 false)
  %34 = load ptr, ptr %7, align 8
  %35 = icmp ne ptr %34, null
  br i1 %35, label %36, label %40

36:                                               ; preds = %31
  %37 = getelementptr inbounds nuw %struct.SDL_FColor, ptr %10, i32 0, i32 0
  %38 = load float, ptr %37, align 4
  %39 = load ptr, ptr %7, align 8
  store float %38, ptr %39, align 4
  br label %40

40:                                               ; preds = %36, %31
  %41 = load ptr, ptr %8, align 8
  %42 = icmp ne ptr %41, null
  br i1 %42, label %43, label %47

43:                                               ; preds = %40
  %44 = getelementptr inbounds nuw %struct.SDL_FColor, ptr %10, i32 0, i32 1
  %45 = load float, ptr %44, align 4
  %46 = load ptr, ptr %8, align 8
  store float %45, ptr %46, align 4
  br label %47

47:                                               ; preds = %43, %40
  %48 = load ptr, ptr %9, align 8
  %49 = icmp ne ptr %48, null
  br i1 %49, label %50, label %54

50:                                               ; preds = %47
  %51 = getelementptr inbounds nuw %struct.SDL_FColor, ptr %10, i32 0, i32 2
  %52 = load float, ptr %51, align 4
  %53 = load ptr, ptr %9, align 8
  store float %52, ptr %53, align 4
  br label %54

54:                                               ; preds = %50, %47
  store i1 true, ptr %5, align 1
  store i32 1, ptr %11, align 4
  br label %55

55:                                               ; preds = %54, %29
  call void @llvm.lifetime.end.p0(i64 16, ptr %10) #10
  %56 = load i1, ptr %5, align 1
  ret i1 %56
}