; Function Attrs: nounwind uwtable
define hidden noundef zeroext i1 @SDL_GetTextureColorModFloat_REAL(ptr noundef %0, ptr noundef writeonly captures(address_is_null) %1, ptr noundef writeonly captures(address_is_null) %2, ptr noundef writeonly captures(address_is_null) %3) local_unnamed_addr #0 {
  %.not = icmp eq ptr %1, null
  br i1 %.not, label %6, label %5

5:                                                ; preds = %4
  store float 1.000000e+00, ptr %1, align 4
  br label %6

6:                                                ; preds = %5, %4
  %.not20 = icmp eq ptr %2, null
  br i1 %.not20, label %8, label %7

7:                                                ; preds = %6
  store float 1.000000e+00, ptr %2, align 4
  br label %8

8:                                                ; preds = %7, %6
  %.not21 = icmp eq ptr %3, null
  br i1 %.not21, label %10, label %9

9:                                                ; preds = %8
  store float 1.000000e+00, ptr %3, align 4
  br label %10

10:                                               ; preds = %9, %8
  %11 = tail call zeroext i1 @SDL_ObjectValid(ptr noundef %0, i32 noundef 3) #15
  br i1 %11, label %14, label %12

12:                                               ; preds = %10
  %13 = tail call zeroext i1 (ptr, ...) @SDL_SetError_REAL(ptr noundef nonnull @.str.2, ptr noundef nonnull @.str.52) #15
  br label %21

14:                                               ; preds = %10
  %.sroa.4.0..sroa_idx = getelementptr inbounds nuw i8, ptr %0, i64 44
  %.sroa.4.0.copyload = load float, ptr %.sroa.4.0..sroa_idx, align 4
  %.sroa.5.0..sroa_idx = getelementptr inbounds nuw i8, ptr %0, i64 48
  %.sroa.5.0.copyload = load float, ptr %.sroa.5.0..sroa_idx, align 8
  br i1 %.not, label %17, label %15

15:                                               ; preds = %14
  %16 = getelementptr inbounds nuw i8, ptr %0, i64 40
  %.sroa.0.0.copyload = load float, ptr %16, align 8
  store float %.sroa.0.0.copyload, ptr %1, align 4
  br label %17

17:                                               ; preds = %15, %14
  br i1 %.not20, label %19, label %18

18:                                               ; preds = %17
  store float %.sroa.4.0.copyload, ptr %2, align 4
  br label %19

19:                                               ; preds = %18, %17
  br i1 %.not21, label %21, label %20

20:                                               ; preds = %19
  store float %.sroa.5.0.copyload, ptr %3, align 4
  br label %21

21:                                               ; preds = %19, %20, %12
  ret i1 %11
}